target datalayout = "e-m:e-p270:32:32-p271:32:32-p272:64:64-i64:64-i128:128-f80:128-n8:16:32:64-S128"
target triple = "x86_64-pc-linux-gnu"

%struct.H5VL_object_get_args_t = type { i32, %union.anon.2 }
%union.anon.2 = type { %struct.anon.4 }
%struct.anon.4 = type { i64, ptr, ptr }
%struct.H5VL_loc_params_t = type { i32, i32, %union.anon.7 }
%union.anon.7 = type { %struct.H5VL_loc_by_idx }
%struct.H5VL_loc_by_idx = type { ptr, i32, i32, i64, i64 }
%struct.anon.3 = type { ptr }

@.str.2 = private unnamed_addr constant [100 x i8] c"generated/home/dtcxzyw/WorkSpace/Projects/compilers/llvm-opt-benchmark/bench/hdf5/hdf5/src/H5Fint.c\00", align 1
@H5E_FILE_g = external global i64, align 8
@H5E_CANTGET_g = external global i64, align 8
@H5E_CANTSET_g = external global i64, align 8
@H5E_CANTREGISTER_g = external global i64, align 8
@.str.132 = private unnamed_addr constant [28 x i8] c"incrementing file ID failed\00", align 1
@H5E_CANTRESET_g = external global i64, align 8
@H5P_LST_DATASET_XFER_ID_g = external global i64, align 8
@__func__.H5F_get_file_id = private unnamed_addr constant [16 x i8] c"H5F_get_file_id\00", align 1
@.str.177 = private unnamed_addr constant [32 x i8] c"can't retrieve file from object\00", align 1
@.str.178 = private unnamed_addr constant [23 x i8] c"getting file ID failed\00", align 1
@.str.179 = private unnamed_addr constant [27 x i8] c"can't set VOL wrapper info\00", align 1
@.str.180 = private unnamed_addr constant [31 x i8] c"unable to register file handle\00", align 1
@.str.181 = private unnamed_addr constant [29 x i8] c"can't reset VOL wrapper info\00", align 1

; Function Attrs: nounwind uwtable
define i64 @H5F_get_file_id(ptr noundef %0, i32 noundef %1, i1 noundef zeroext %2) #0 {
  %4 = alloca ptr, align 8
  %5 = alloca i32, align 4
  %6 = alloca i8, align 1
  %7 = alloca ptr, align 8
  %8 = alloca %struct.H5VL_object_get_args_t, align 8
  %9 = alloca %struct.H5VL_loc_params_t, align 8
  %10 = alloca i64, align 8
  %11 = alloca i8, align 1
  %12 = alloca i64, align 8
  %13 = alloca i8, align 1
  store ptr %0, ptr %4, align 8
  store i32 %1, ptr %5, align 4
  %14 = zext i1 %2 to i8
  store i8 %14, ptr %6, align 1
  store ptr null, ptr %7, align 8
  store i64 -1, ptr %10, align 8
  store i8 0, ptr %11, align 1
  store i64 -1, ptr %12, align 8
  store i8 0, ptr %13, align 1
  %15 = getelementptr inbounds %struct.H5VL_loc_params_t, ptr %9, i32 0, i32 1
  store i32 0, ptr %15, align 4
  %16 = load i32, ptr %5, align 4
  %17 = getelementptr inbounds %struct.H5VL_loc_params_t, ptr %9, i32 0, i32 0
  store i32 %16, ptr %17, align 8
  %18 = getelementptr inbounds %struct.H5VL_object_get_args_t, ptr %8, i32 0, i32 0
  store i32 0, ptr %18, align 8
  %19 = getelementptr inbounds %struct.H5VL_object_get_args_t, ptr %8, i32 0, i32 1
  %20 = getelementptr inbounds %struct.anon.3, ptr %19, i32 0, i32 0
  store ptr %7, ptr %20, align 8
  %21 = load ptr, ptr %4, align 8
  %22 = load i64, ptr @H5P_LST_DATASET_XFER_ID_g, align 8
  %23 = call i32 @H5VL_object_get(ptr noundef %21, ptr noundef %9, ptr noundef %8, i64 noundef %22, ptr noundef null)
  %24 = icmp slt i32 %23, 0
  br i1 %24, label %25, label %40

25:                                               ; preds = %3
  br label %26

26:                                               ; preds = %25
  br label %27

27:                                               ; preds = %26
  br label %28

28:                                               ; preds = %27
  %29 = load i64, ptr @H5E_FILE_g, align 8
  %30 = load i64, ptr @H5E_CANTGET_g, align 8
  %31 = call i32 (ptr, ptr, i32, i64, i64, ptr, ...) @H5E_printf_stack(ptr noundef @.str.2, ptr noundef @__func__.H5F_get_file_id, i32 noundef 4087, i64 noundef %29, i64 noundef %30, ptr noundef @.str.177)
  br label %32

32:                                               ; preds = %28
  store i8 1, ptr %13, align 1
  %33 = load i8, ptr %13, align 1
  %34 = trunc i8 %33 to i1
  %35 = zext i1 %34 to i8
  store i8 %35, ptr %13, align 1
  br label %36

36:                                               ; preds = %32
  br label %37

37:                                               ; preds = %36
  store i64 -1, ptr %12, align 8
  br label %127

38:                                               ; No predecessors!
  br label %39

39:                                               ; preds = %38
  br label %40

40:                                               ; preds = %39, %3
  %41 = load ptr, ptr %7, align 8
  %42 = call i32 @H5I_find_id(ptr noundef %41, i32 noundef 1, ptr noundef %10)
  %43 = icmp slt i32 %42, 0
  br i1 %43, label %44, label %59

44:                                               ; preds = %40
  br label %45

45:                                               ; preds = %44
  br label %46

46:                                               ; preds = %45
  br label %47

47:                                               ; preds = %46
  %48 = load i64, ptr @H5E_FILE_g, align 8
  %49 = load i64, ptr @H5E_CANTGET_g, align 8
  %50 = call i32 (ptr, ptr, i32, i64, i64, ptr, ...) @H5E_printf_stack(ptr noundef @.str.2, ptr noundef @__func__.H5F_get_file_id, i32 noundef 4091, i64 noundef %48, i64 noundef %49, ptr noundef @.str.178)
  br label %51

51:                                               ; preds = %47
  store i8 1, ptr %13, align 1
  %52 = load i8, ptr %13, align 1
  %53 = trunc i8 %52 to i1
  %54 = zext i1 %53 to i8
  store i8 %54, ptr %13, align 1
  br label %55

55:                                               ; preds = %51
  br label %56

56:                                               ; preds = %55
  store i64 -1, ptr %12, align 8
  br label %127

57:                                               ; No predecessors!
  br label %58

58:                                               ; preds = %57
  br label %59

59:                                               ; preds = %58, %40
  %60 = load i64, ptr %10, align 8
  %61 = icmp eq i64 -1, %60
  br i1 %61, label %62, label %103

62:                                               ; preds = %59
  %63 = load ptr, ptr %4, align 8
  %64 = call i32 @H5VL_set_vol_wrapper(ptr noundef %63)
  %65 = icmp slt i32 %64, 0
  br i1 %65, label %66, label %81

66:                                               ; preds = %62
  br label %67

67:                                               ; preds = %66
  br label %68

68:                                               ; preds = %67
  br label %69

69:                                               ; preds = %68
  %70 = load i64, ptr @H5E_FILE_g, align 8
  %71 = load i64, ptr @H5E_CANTSET_g, align 8
  %72 = call i32 (ptr, ptr, i32, i64, i64, ptr, ...) @H5E_printf_stack(ptr noundef @.str.2, ptr noundef @__func__.H5F_get_file_id, i32 noundef 4097, i64 noundef %70, i64 noundef %71, ptr noundef @.str.179)
  br label %73

73:                                               ; preds = %69
  store i8 1, ptr %13, align 1
  %74 = load i8, ptr %13, align 1
  %75 = trunc i8 %74 to i1
  %76 = zext i1 %75 to i8
  store i8 %76, ptr %13, align 1
  br label %77

77:                                               ; preds = %73
  br label %78

78:                                               ; preds = %77
  store i64 -1, ptr %12, align 8
  br label %127

79:                                               ; No predecessors!
  br label %80

80:                                               ; preds = %79
  br label %81

81:                                               ; preds = %80, %62
  store i8 1, ptr %11, align 1
  %82 = load ptr, ptr %7, align 8
  %83 = load i8, ptr %6, align 1
  %84 = trunc i8 %83 to i1
  %85 = call i64 @H5VL_wrap_register(i32 noundef 1, ptr noundef %82, i1 noundef zeroext %84)
  store i64 %85, ptr %10, align 8
  %86 = icmp slt i64 %85, 0
  br i1 %86, label %87, label %102

87:                                               ; preds = %81
  br label %88

88:                                               ; preds = %87
  br label %89

89:                                               ; preds = %88
  br label %90

90:                                               ; preds = %89
  %91 = load i64, ptr @H5E_FILE_g, align 8
  %92 = load i64, ptr @H5E_CANTREGISTER_g, align 8
  %93 = call i32 (ptr, ptr, i32, i64, i64, ptr, ...) @H5E_printf_stack(ptr noundef @.str.2, ptr noundef @__func__.H5F_get_file_id, i32 noundef 4101, i64 noundef %91, i64 noundef %92, ptr noundef @.str.180)
  br label %94

94:                                               ; preds = %90
  store i8 1, ptr %13, align 1
  %95 = load i8, ptr %13, align 1
  %96 = trunc i8 %95 to i1
  %97 = zext i1 %96 to i8
  store i8 %97, ptr %13, align 1
  br label %98

98:                                               ; preds = %94
  br label %99

99:                                               ; preds = %98
  store i64 -1, ptr %12, align 8
  br label %127

100:                                              ; No predecessors!
  br label %101

101:                                              ; preds = %100
  br label %102

102:                                              ; preds = %101, %81
  br label %125

103:                                              ; preds = %59
  %104 = load i64, ptr %10, align 8
  %105 = load i8, ptr %6, align 1
  %106 = trunc i8 %105 to i1
  %107 = call i32 @H5I_inc_ref(i64 noundef %104, i1 noundef zeroext %106)
  %108 = icmp slt i32 %107, 0
  br i1 %108, label %109, label %124

109:                                              ; preds = %103
  br label %110

110:                                              ; preds = %109
  br label %111

111:                                              ; preds = %110
  br label %112

112:                                              ; preds = %111
  %113 = load i64, ptr @H5E_FILE_g, align 8
  %114 = load i64, ptr @H5E_CANTSET_g, align 8
  %115 = call i32 (ptr, ptr, i32, i64, i64, ptr, ...) @H5E_printf_stack(ptr noundef @.str.2, ptr noundef @__func__.H5F_get_file_id, i32 noundef 4106, i64 noundef %113, i64 noundef %114, ptr noundef @.str.132)
  br label %116

116:                                              ; preds = %112
  store i8 1, ptr %13, align 1
  %117 = load i8, ptr %13, align 1
  %118 = trunc i8 %117 to i1
  %119 = zext i1 %118 to i8
  store i8 %119, ptr %13, align 1
  br label %120

120:                                              ; preds = %116
  br label %121

121:                                              ; preds = %120
  store i64 -1, ptr %12, align 8
  br label %127

122:                                              ; No predecessors!
  br label %123

123:                                              ; preds = %122
  br label %124

124:                                              ; preds = %123, %103
  br label %125

125:                                              ; preds = %124, %102
  %126 = load i64, ptr %10, align 8
  store i64 %126, ptr %12, align 8
  br label %127

127:                                              ; preds = %125, %121, %99, %78, %56, %37
  %128 = load i8, ptr %11, align 1
  %129 = trunc i8 %128 to i1
  br i1 %129, label %130, label %146

130:                                              ; preds = %127
  %131 = call i32 @H5VL_reset_vol_wrapper()
  %132 = icmp slt i32 %131, 0
  br i1 %132, label %133, label %146

133:                                              ; preds = %130
  br label %134

134:                                              ; preds = %133
  br label %135

135:                                              ; preds = %134
  br label %136

136:                                              ; preds = %135
  %137 = load i64, ptr @H5E_FILE_g, align 8
  %138 = load i64, ptr @H5E_CANTRESET_g, align 8
  %139 = call i32 (ptr, ptr, i32, i64, i64, ptr, ...) @H5E_printf_stack(ptr noundef @.str.2, ptr noundef @__func__.H5F_get_file_id, i32 noundef 4115, i64 noundef %137, i64 noundef %138, ptr noundef @.str.181)
  br label %140

140:                                              ; preds = %136
  store i8 1, ptr %13, align 1
  %141 = load i8, ptr %13, align 1
  %142 = trunc i8 %141 to i1
  %143 = zext i1 %142 to i8
  store i8 %143, ptr %13, align 1
  br label %144

144:                                              ; preds = %140
  store i64 -1, ptr %12, align 8
  br label %145

145:                                              ; preds = %144
  br label %146

146:                                              ; preds = %145, %130, %127
  %147 = load i64, ptr %12, align 8
  ret i64 %147
}