; Function Attrs: nounwind uwtable
define i64 @H5F_get_file_id(ptr noundef %0, i32 noundef %1, i1 noundef zeroext %2) local_unnamed_addr #0 {
  %4 = alloca ptr, align 8
  %5 = alloca %struct.H5VL_object_get_args_t, align 8
  %6 = alloca %struct.H5VL_loc_params_t, align 8
  %7 = alloca i64, align 8
  store ptr null, ptr %4, align 8
  store i64 -1, ptr %7, align 8
  %8 = getelementptr inbounds i8, ptr %6, i64 4
  store i32 0, ptr %8, align 4
  store i32 %1, ptr %6, align 8
  store i32 0, ptr %5, align 8
  %9 = getelementptr inbounds i8, ptr %5, i64 8
  store ptr %4, ptr %9, align 8
  %10 = load i64, ptr @H5P_LST_DATASET_XFER_ID_g, align 8
  %11 = call i32 @H5VL_object_get(ptr noundef %0, ptr noundef nonnull %6, ptr noundef nonnull %5, i64 noundef %10, ptr noundef null) #22
  %12 = icmp slt i32 %11, 0
  br i1 %12, label %13, label %17

13:                                               ; preds = %3
  %14 = load i64, ptr @H5E_FILE_g, align 8
  %15 = load i64, ptr @H5E_CANTGET_g, align 8
  %16 = call i32 (ptr, ptr, i32, i64, i64, ptr, ...) @H5E_printf_stack(ptr noundef nonnull @.str.2, ptr noundef nonnull @__func__.H5F_get_file_id, i32 noundef 4087, i64 noundef %14, i64 noundef %15, ptr noundef nonnull @.str.177) #22
  br label %.thread

17:                                               ; preds = %3
  %18 = load ptr, ptr %4, align 8
  %19 = call i32 @H5I_find_id(ptr noundef %18, i32 noundef 1, ptr noundef nonnull %7) #22
  %20 = icmp slt i32 %19, 0
  br i1 %20, label %21, label %25

21:                                               ; preds = %17
  %22 = load i64, ptr @H5E_FILE_g, align 8
  %23 = load i64, ptr @H5E_CANTGET_g, align 8
  %24 = call i32 (ptr, ptr, i32, i64, i64, ptr, ...) @H5E_printf_stack(ptr noundef nonnull @.str.2, ptr noundef nonnull @__func__.H5F_get_file_id, i32 noundef 4091, i64 noundef %22, i64 noundef %23, ptr noundef nonnull @.str.178) #22
  br label %.thread

25:                                               ; preds = %17
  %26 = load i64, ptr %7, align 8
  %27 = icmp eq i64 %26, -1
  br i1 %27, label %28, label %42

28:                                               ; preds = %25
  %29 = call i32 @H5VL_set_vol_wrapper(ptr noundef %0) #22
  %30 = icmp slt i32 %29, 0
  br i1 %30, label %31, label %35

31:                                               ; preds = %28
  %32 = load i64, ptr @H5E_FILE_g, align 8
  %33 = load i64, ptr @H5E_CANTSET_g, align 8
  %34 = call i32 (ptr, ptr, i32, i64, i64, ptr, ...) @H5E_printf_stack(ptr noundef nonnull @.str.2, ptr noundef nonnull @__func__.H5F_get_file_id, i32 noundef 4097, i64 noundef %32, i64 noundef %33, ptr noundef nonnull @.str.179) #22
  br label %.thread

35:                                               ; preds = %28
  %36 = load ptr, ptr %4, align 8
  %37 = call i64 @H5VL_wrap_register(i32 noundef 1, ptr noundef %36, i1 noundef zeroext %2) #22
  store i64 %37, ptr %7, align 8
  %38 = icmp slt i64 %37, 0
  br i1 %38, label %.thread17, label %.thread21

.thread17:                                        ; preds = %35
  %39 = load i64, ptr @H5E_FILE_g, align 8
  %40 = load i64, ptr @H5E_CANTREGISTER_g, align 8
  %41 = call i32 (ptr, ptr, i32, i64, i64, ptr, ...) @H5E_printf_stack(ptr noundef nonnull @.str.2, ptr noundef nonnull @__func__.H5F_get_file_id, i32 noundef 4101, i64 noundef %39, i64 noundef %40, ptr noundef nonnull @.str.180) #22
  br label %.thread21

42:                                               ; preds = %25
  %43 = call i32 @H5I_inc_ref(i64 noundef %26, i1 noundef zeroext %2) #22
  %44 = icmp slt i32 %43, 0
  br i1 %44, label %45, label %49

45:                                               ; preds = %42
  %46 = load i64, ptr @H5E_FILE_g, align 8
  %47 = load i64, ptr @H5E_CANTSET_g, align 8
  %48 = call i32 (ptr, ptr, i32, i64, i64, ptr, ...) @H5E_printf_stack(ptr noundef nonnull @.str.2, ptr noundef nonnull @__func__.H5F_get_file_id, i32 noundef 4106, i64 noundef %46, i64 noundef %47, ptr noundef nonnull @.str.132) #22
  br label %.thread

49:                                               ; preds = %42
  %50 = load i64, ptr %7, align 8
  br label %.thread

.thread21:                                        ; preds = %35, %.thread17
  %.020 = phi i64 [ -1, %.thread17 ], [ %37, %35 ]
  %51 = call i32 @H5VL_reset_vol_wrapper() #22
  %52 = icmp slt i32 %51, 0
  br i1 %52, label %53, label %.thread

53:                                               ; preds = %.thread21
  %54 = load i64, ptr @H5E_FILE_g, align 8
  %55 = load i64, ptr @H5E_CANTRESET_g, align 8
  %56 = call i32 (ptr, ptr, i32, i64, i64, ptr, ...) @H5E_printf_stack(ptr noundef nonnull @.str.2, ptr noundef nonnull @__func__.H5F_get_file_id, i32 noundef 4115, i64 noundef %54, i64 noundef %55, ptr noundef nonnull @.str.181) #22
  br label %.thread

.thread:                                          ; preds = %45, %31, %21, %13, %49, %53, %.thread21
  %.1 = phi i64 [ -1, %53 ], [ %.020, %.thread21 ], [ %50, %49 ], [ -1, %13 ], [ -1, %21 ], [ -1, %31 ], [ -1, %45 ]
  ret i64 %.1
}